target datalayout = "e-m:e-p270:32:32-p271:32:32-p272:64:64-i64:64-i128:128-f80:128-n8:16:32:64-S128"
target triple = "x86_64-pc-linux-gnu"

%class.Jipopt = type { %"class.Ipopt::TNLP.base", ptr, ptr, i32, i32, i32, i32, i32, ptr, ptr, ptr, ptr, ptr, ptr, ptr, ptr, ptr, i8, i8, %"class.Ipopt::SmartPtr", ptr, ptr, ptr, ptr, ptr, ptr, ptr, ptr, ptr, ptr, ptr }
%"class.Ipopt::TNLP.base" = type { %"class.Ipopt::ReferencedObject.base" }
%"class.Ipopt::ReferencedObject.base" = type <{ ptr, i32 }>
%"class.Ipopt::SmartPtr" = type { ptr }
%"class.Ipopt::SmartPtr.9" = type { ptr }
%"class.Ipopt::SmartPtr.10" = type { ptr }
%"class.Ipopt::ReferencedObject" = type <{ ptr, i32, [4 x i8] }>

@.str.22 = private unnamed_addr constant [36 x i8] c"\0A\0A*** Error during initialization!\0A\00", align 1

; Function Attrs: inlinehint mustprogress nounwind uwtable
define linkonce_odr noundef i32 @_ZNK5Ipopt16ReferencedObject14ReferenceCountEv(ptr noundef nonnull align 8 dereferenceable(12) %0) #11 comdat align 2 {
  %2 = alloca ptr, align 8
  store ptr %0, ptr %2, align 8, !tbaa !159
  %3 = load ptr, ptr %2, align 8
  %4 = getelementptr inbounds nuw %"class.Ipopt::ReferencedObject", ptr %3, i32 0, i32 1
  %5 = load i32, ptr %4, align 8, !tbaa !161
  ret i32 %5
}

; Function Attrs: inlinehint mustprogress nounwind uwtable
define linkonce_odr void @_ZNK5Ipopt16ReferencedObject10ReleaseRefEPKNS_10ReferencerE(ptr noundef nonnull align 8 dereferenceable(12) %0, ptr noundef %1) #11 comdat align 2 {
  %3 = alloca ptr, align 8
  %4 = alloca ptr, align 8
  store ptr %0, ptr %3, align 8, !tbaa !159
  store ptr %1, ptr %4, align 8, !tbaa !178
  %5 = load ptr, ptr %3, align 8
  %6 = getelementptr inbounds nuw %"class.Ipopt::ReferencedObject", ptr %5, i32 0, i32 1
  %7 = load i32, ptr %6, align 8, !tbaa !161
  %8 = add nsw i32 %7, -1
  store i32 %8, ptr %6, align 8, !tbaa !161
  ret void
}

; Function Attrs: inlinehint mustprogress nounwind uwtable
define linkonce_odr void @_ZNK5Ipopt16ReferencedObject6AddRefEPKNS_10ReferencerE(ptr noundef nonnull align 8 dereferenceable(12) %0, ptr noundef %1) #11 comdat align 2 {
  %3 = alloca ptr, align 8
  %4 = alloca ptr, align 8
  store ptr %0, ptr %3, align 8, !tbaa !159
  store ptr %1, ptr %4, align 8, !tbaa !178
  %5 = load ptr, ptr %3, align 8
  %6 = getelementptr inbounds nuw %"class.Ipopt::ReferencedObject", ptr %5, i32 0, i32 1
  %7 = load i32, ptr %6, align 8, !tbaa !161
  %8 = add nsw i32 %7, 1
  store i32 %8, ptr %6, align 8, !tbaa !161
  ret void
}

; Function Attrs: mustprogress nounwind uwtable
define linkonce_odr void @_ZN5Ipopt8SmartPtrINS_4TNLPEE15ReleasePointer_Ev(ptr noundef nonnull align 8 dereferenceable(8) %0) #7 comdat align 2 {
  %2 = alloca ptr, align 8
  store ptr %0, ptr %2, align 8, !tbaa !136
  %3 = load ptr, ptr %2, align 8
  %4 = getelementptr inbounds nuw %"class.Ipopt::SmartPtr.10", ptr %3, i32 0, i32 0
  %5 = load ptr, ptr %4, align 8, !tbaa !138
  %6 = icmp ne ptr %5, null
  br i1 %6, label %7, label %25

7:                                                ; preds = %1
  %8 = getelementptr inbounds nuw %"class.Ipopt::SmartPtr.10", ptr %3, i32 0, i32 0
  %9 = load ptr, ptr %8, align 8, !tbaa !138
  call void @_ZNK5Ipopt16ReferencedObject10ReleaseRefEPKNS_10ReferencerE(ptr noundef nonnull align 8 dereferenceable(12) %9, ptr noundef %3)
  %10 = getelementptr inbounds nuw %"class.Ipopt::SmartPtr.10", ptr %3, i32 0, i32 0
  %11 = load ptr, ptr %10, align 8, !tbaa !138
  %12 = call noundef i32 @_ZNK5Ipopt16ReferencedObject14ReferenceCountEv(ptr noundef nonnull align 8 dereferenceable(12) %11)
  %13 = icmp eq i32 %12, 0
  br i1 %13, label %14, label %24

14:                                               ; preds = %7
  %15 = getelementptr inbounds nuw %"class.Ipopt::SmartPtr.10", ptr %3, i32 0, i32 0
  %16 = load ptr, ptr %15, align 8, !tbaa !138
  %17 = icmp eq ptr %16, null
  br i1 %17, label %22, label %18

18:                                               ; preds = %14
  %19 = load ptr, ptr %16, align 8, !tbaa !14
  %20 = getelementptr inbounds ptr, ptr %19, i64 1
  %21 = load ptr, ptr %20, align 8
  call void %21(ptr noundef nonnull align 8 dereferenceable(12) %16) #3
  br label %22

22:                                               ; preds = %18, %14
  %23 = getelementptr inbounds nuw %"class.Ipopt::SmartPtr.10", ptr %3, i32 0, i32 0
  store ptr null, ptr %23, align 8, !tbaa !138
  br label %24

24:                                               ; preds = %22, %7
  br label %25

25:                                               ; preds = %24, %1
  ret void
}

; Function Attrs: mustprogress uwtable
define linkonce_odr noundef nonnull align 8 dereferenceable(8) ptr @_ZN5Ipopt8SmartPtrINS_4TNLPEE14SetFromRawPtr_EPS1_(ptr noundef nonnull align 8 dereferenceable(8) %0, ptr noundef %1) #4 comdat align 2 {
  %3 = alloca ptr, align 8
  %4 = alloca ptr, align 8
  store ptr %0, ptr %3, align 8, !tbaa !136
  store ptr %1, ptr %4, align 8, !tbaa !54
  %5 = load ptr, ptr %3, align 8
  %6 = load ptr, ptr %4, align 8, !tbaa !54
  %7 = icmp ne ptr %6, null
  br i1 %7, label %8, label %10

8:                                                ; preds = %2
  %9 = load ptr, ptr %4, align 8, !tbaa !54
  call void @_ZNK5Ipopt16ReferencedObject6AddRefEPKNS_10ReferencerE(ptr noundef nonnull align 8 dereferenceable(12) %9, ptr noundef %5)
  br label %10

10:                                               ; preds = %8, %2
  call void @_ZN5Ipopt8SmartPtrINS_4TNLPEE15ReleasePointer_Ev(ptr noundef nonnull align 8 dereferenceable(8) %5)
  %11 = load ptr, ptr %4, align 8, !tbaa !54
  %12 = getelementptr inbounds nuw %"class.Ipopt::SmartPtr.10", ptr %5, i32 0, i32 0
  store ptr %11, ptr %12, align 8, !tbaa !138
  ret ptr %5
}

; Function Attrs: mustprogress nounwind uwtable
define linkonce_odr void @_ZN5Ipopt8SmartPtrINS_4TNLPEED2Ev(ptr noundef nonnull align 8 dereferenceable(8) %0) unnamed_addr #7 comdat align 2 {
  %2 = alloca ptr, align 8
  store ptr %0, ptr %2, align 8, !tbaa !136
  %3 = load ptr, ptr %2, align 8
  call void @_ZN5Ipopt8SmartPtrINS_4TNLPEE15ReleasePointer_Ev(ptr noundef nonnull align 8 dereferenceable(8) %3)
  ret void
}

; Function Attrs: mustprogress uwtable
define linkonce_odr void @_ZN5Ipopt8SmartPtrINS_4TNLPEEC2EPS1_(ptr noundef nonnull align 8 dereferenceable(8) %0, ptr noundef %1) unnamed_addr #4 comdat align 2 {
  %3 = alloca ptr, align 8
  %4 = alloca ptr, align 8
  store ptr %0, ptr %3, align 8, !tbaa !136
  store ptr %1, ptr %4, align 8, !tbaa !54
  %5 = load ptr, ptr %3, align 8
  %6 = getelementptr inbounds nuw %"class.Ipopt::SmartPtr.10", ptr %5, i32 0, i32 0
  store ptr null, ptr %6, align 8, !tbaa !138
  %7 = load ptr, ptr %4, align 8, !tbaa !54
  %8 = call noundef nonnull align 8 dereferenceable(8) ptr @_ZN5Ipopt8SmartPtrINS_4TNLPEE14SetFromRawPtr_EPS1_(ptr noundef nonnull align 8 dereferenceable(8) %5, ptr noundef %7)
  ret void
}

; Function Attrs: mustprogress nounwind uwtable
define linkonce_odr noundef ptr @_ZNK5Ipopt8SmartPtrINS_16IpoptApplicationEEptEv(ptr noundef nonnull align 8 dereferenceable(8) %0) #7 comdat align 2 {
  %2 = alloca ptr, align 8
  store ptr %0, ptr %2, align 8, !tbaa !56
  %3 = load ptr, ptr %2, align 8
  %4 = getelementptr inbounds nuw %"class.Ipopt::SmartPtr", ptr %3, i32 0, i32 0
  %5 = load ptr, ptr %4, align 8, !tbaa !59
  ret ptr %5
}

; Function Attrs: mustprogress nounwind uwtable
define linkonce_odr noundef ptr @_ZN5Ipopt9GetRawPtrI6JipoptEEPT_RKNS_8SmartPtrIS2_EE(ptr noundef nonnull align 8 dereferenceable(8) %0) #7 comdat {
  %2 = alloca ptr, align 8
  store ptr %0, ptr %2, align 8, !tbaa !128
  %3 = load ptr, ptr %2, align 8, !tbaa !128
  %4 = getelementptr inbounds nuw %"class.Ipopt::SmartPtr.9", ptr %3, i32 0, i32 0
  %5 = load ptr, ptr %4, align 8, !tbaa !130
  ret ptr %5
}

; Function Attrs: mustprogress uwtable
define i32 @Java_org_coinor_Ipopt_OptimizeTNLP(ptr noundef %0, ptr noundef %1, i64 noundef %2, ptr noundef %3, ptr noundef %4, ptr noundef %5, ptr noundef %6, ptr noundef %7, ptr noundef %8, ptr noundef %9, ptr noundef %10, ptr noundef %11) #4 personality ptr @__gxx_personality_v0 {
  %13 = alloca i32, align 4
  %14 = alloca ptr, align 8
  %15 = alloca ptr, align 8
  %16 = alloca i64, align 8
  %17 = alloca ptr, align 8
  %18 = alloca ptr, align 8
  %19 = alloca ptr, align 8
  %20 = alloca ptr, align 8
  %21 = alloca ptr, align 8
  %22 = alloca ptr, align 8
  %23 = alloca ptr, align 8
  %24 = alloca ptr, align 8
  %25 = alloca ptr, align 8
  %26 = alloca ptr, align 8
  %27 = alloca i32, align 4
  %28 = alloca i32, align 4
  %29 = alloca %"class.Ipopt::SmartPtr.10", align 8
  %30 = alloca ptr, align 8
  %31 = alloca i32, align 4
  store ptr %0, ptr %14, align 8, !tbaa !8
  store ptr %1, ptr %15, align 8, !tbaa !10
  store i64 %2, ptr %16, align 8, !tbaa !132
  store ptr %3, ptr %17, align 8, !tbaa !101
  store ptr %4, ptr %18, align 8, !tbaa !101
  store ptr %5, ptr %19, align 8, !tbaa !101
  store ptr %6, ptr %20, align 8, !tbaa !101
  store ptr %7, ptr %21, align 8, !tbaa !101
  store ptr %8, ptr %22, align 8, !tbaa !101
  store ptr %9, ptr %23, align 8, !tbaa !101
  store ptr %10, ptr %24, align 8, !tbaa !101
  store ptr %11, ptr %25, align 8, !tbaa !101
  call void @llvm.lifetime.start.p0(i64 8, ptr %26) #3
  %32 = load i64, ptr %16, align 8, !tbaa !132
  %33 = inttoptr i64 %32 to ptr
  %34 = call noundef ptr @_ZN5Ipopt9GetRawPtrI6JipoptEEPT_RKNS_8SmartPtrIS2_EE(ptr noundef nonnull align 8 dereferenceable(8) %33)
  store ptr %34, ptr %26, align 8, !tbaa !3
  %35 = load ptr, ptr %14, align 8, !tbaa !8
  %36 = load ptr, ptr %26, align 8, !tbaa !3
  %37 = getelementptr inbounds nuw %class.Jipopt, ptr %36, i32 0, i32 1
  store ptr %35, ptr %37, align 8, !tbaa !16
  %38 = load ptr, ptr %15, align 8, !tbaa !10
  %39 = load ptr, ptr %26, align 8, !tbaa !3
  %40 = getelementptr inbounds nuw %class.Jipopt, ptr %39, i32 0, i32 2
  store ptr %38, ptr %40, align 8, !tbaa !24
  %41 = load ptr, ptr %17, align 8, !tbaa !101
  %42 = load ptr, ptr %26, align 8, !tbaa !3
  %43 = getelementptr inbounds nuw %class.Jipopt, ptr %42, i32 0, i32 11
  store ptr %41, ptr %43, align 8, !tbaa !33
  %44 = load ptr, ptr %18, align 8, !tbaa !101
  %45 = load ptr, ptr %26, align 8, !tbaa !3
  %46 = getelementptr inbounds nuw %class.Jipopt, ptr %45, i32 0, i32 14
  store ptr %44, ptr %46, align 8, !tbaa !36
  %47 = load ptr, ptr %19, align 8, !tbaa !101
  %48 = load ptr, ptr %26, align 8, !tbaa !3
  %49 = getelementptr inbounds nuw %class.Jipopt, ptr %48, i32 0, i32 12
  store ptr %47, ptr %49, align 8, !tbaa !34
  %50 = load ptr, ptr %20, align 8, !tbaa !101
  %51 = load ptr, ptr %26, align 8, !tbaa !3
  %52 = getelementptr inbounds nuw %class.Jipopt, ptr %51, i32 0, i32 8
  store ptr %50, ptr %52, align 8, !tbaa !30
  %53 = load ptr, ptr %21, align 8, !tbaa !101
  %54 = load ptr, ptr %26, align 8, !tbaa !3
  %55 = getelementptr inbounds nuw %class.Jipopt, ptr %54, i32 0, i32 9
  store ptr %53, ptr %55, align 8, !tbaa !31
  %56 = load ptr, ptr %22, align 8, !tbaa !101
  %57 = load ptr, ptr %26, align 8, !tbaa !3
  %58 = getelementptr inbounds nuw %class.Jipopt, ptr %57, i32 0, i32 10
  store ptr %56, ptr %58, align 8, !tbaa !32
  %59 = load ptr, ptr %23, align 8, !tbaa !101
  %60 = load ptr, ptr %26, align 8, !tbaa !3
  %61 = getelementptr inbounds nuw %class.Jipopt, ptr %60, i32 0, i32 13
  store ptr %59, ptr %61, align 8, !tbaa !35
  %62 = load ptr, ptr %24, align 8, !tbaa !101
  %63 = load ptr, ptr %26, align 8, !tbaa !3
  %64 = getelementptr inbounds nuw %class.Jipopt, ptr %63, i32 0, i32 15
  store ptr %62, ptr %64, align 8, !tbaa !37
  %65 = load ptr, ptr %25, align 8, !tbaa !101
  %66 = load ptr, ptr %26, align 8, !tbaa !3
  %67 = getelementptr inbounds nuw %class.Jipopt, ptr %66, i32 0, i32 16
  store ptr %65, ptr %67, align 8, !tbaa !38
  call void @llvm.lifetime.start.p0(i64 4, ptr %27) #3
  %68 = load ptr, ptr %26, align 8, !tbaa !3
  %69 = getelementptr inbounds nuw %class.Jipopt, ptr %68, i32 0, i32 19
  %70 = call noundef ptr @_ZNK5Ipopt8SmartPtrINS_16IpoptApplicationEEptEv(ptr noundef nonnull align 8 dereferenceable(8) %69)
  %71 = load ptr, ptr %70, align 8, !tbaa !14
  %72 = getelementptr inbounds ptr, ptr %71, i64 6
  %73 = load ptr, ptr %72, align 8
  %74 = call noundef i32 %73(ptr noundef nonnull align 8 dereferenceable(90) %70, i1 noundef zeroext false)
  store i32 %74, ptr %27, align 4, !tbaa !134
  %75 = load i32, ptr %27, align 4, !tbaa !134
  %76 = icmp ne i32 %75, 0
  br i1 %76, label %77, label %80

77:                                               ; preds = %12
  %78 = call i32 (ptr, ...) @printf(ptr noundef @.str.22)
  %79 = load i32, ptr %27, align 4, !tbaa !134
  store i32 %79, ptr %13, align 4
  store i32 1, ptr %28, align 4
  br label %95

80:                                               ; preds = %12
  %81 = load ptr, ptr %26, align 8, !tbaa !3
  %82 = getelementptr inbounds nuw %class.Jipopt, ptr %81, i32 0, i32 19
  %83 = call noundef ptr @_ZNK5Ipopt8SmartPtrINS_16IpoptApplicationEEptEv(ptr noundef nonnull align 8 dereferenceable(8) %82)
  call void @llvm.lifetime.start.p0(i64 8, ptr %29) #3
  %84 = load ptr, ptr %26, align 8, !tbaa !3
  call void @_ZN5Ipopt8SmartPtrINS_4TNLPEEC2EPS1_(ptr noundef nonnull align 8 dereferenceable(8) %29, ptr noundef %84)
  %85 = load ptr, ptr %83, align 8, !tbaa !14
  %86 = getelementptr inbounds ptr, ptr %85, i64 7
  %87 = load ptr, ptr %86, align 8
  %88 = invoke noundef i32 %87(ptr noundef nonnull align 8 dereferenceable(90) %83, ptr noundef nonnull align 8 dereferenceable(8) %29)
          to label %89 unwind label %91

89:                                               ; preds = %80
  store i32 %88, ptr %27, align 4, !tbaa !134
  call void @_ZN5Ipopt8SmartPtrINS_4TNLPEED2Ev(ptr noundef nonnull align 8 dereferenceable(8) %29) #3
  call void @llvm.lifetime.end.p0(i64 8, ptr %29) #3
  %90 = load i32, ptr %27, align 4, !tbaa !134
  store i32 %90, ptr %13, align 4
  store i32 1, ptr %28, align 4
  br label %95

91:                                               ; preds = %80
  %92 = landingpad { ptr, i32 }
          cleanup
  %93 = extractvalue { ptr, i32 } %92, 0
  store ptr %93, ptr %30, align 8
  %94 = extractvalue { ptr, i32 } %92, 1
  store i32 %94, ptr %31, align 4
  call void @_ZN5Ipopt8SmartPtrINS_4TNLPEED2Ev(ptr noundef nonnull align 8 dereferenceable(8) %29) #3
  call void @llvm.lifetime.end.p0(i64 8, ptr %29) #3
  call void @llvm.lifetime.end.p0(i64 4, ptr %27) #3
  call void @llvm.lifetime.end.p0(i64 8, ptr %26) #3
  br label %97

95:                                               ; preds = %89, %77
  call void @llvm.lifetime.end.p0(i64 4, ptr %27) #3
  call void @llvm.lifetime.end.p0(i64 8, ptr %26) #3
  %96 = load i32, ptr %13, align 4
  ret i32 %96

97:                                               ; preds = %91
  %98 = load ptr, ptr %30, align 8
  %99 = load i32, ptr %31, align 4
  %100 = insertvalue { ptr, i32 } poison, ptr %98, 0
  %101 = insertvalue { ptr, i32 } %100, i32 %99, 1
  resume { ptr, i32 } %101
}