; Function Attrs: mustprogress uwtable
define noundef i32 @Java_org_coinor_Ipopt_OptimizeTNLP(ptr noundef %0, ptr noundef %1, i64 noundef %2, ptr noundef %3, ptr noundef %4, ptr noundef %5, ptr noundef %6, ptr noundef %7, ptr noundef %8, ptr noundef %9, ptr noundef %10, ptr noundef %11) local_unnamed_addr #3 personality ptr @__gxx_personality_v0 {
  %13 = alloca %"class.Ipopt::SmartPtr.10", align 8
  %14 = inttoptr i64 %2 to ptr
  %15 = load ptr, ptr %14, align 8, !tbaa !115
  %16 = getelementptr inbounds nuw i8, ptr %15, i64 16
  store ptr %0, ptr %16, align 8, !tbaa !10
  %17 = getelementptr inbounds nuw i8, ptr %15, i64 24
  store ptr %1, ptr %17, align 8, !tbaa !20
  %18 = getelementptr inbounds nuw i8, ptr %15, i64 80
  store ptr %3, ptr %18, align 8, !tbaa !94
  %19 = getelementptr inbounds nuw i8, ptr %15, i64 104
  store ptr %4, ptr %19, align 8, !tbaa !101
  %20 = getelementptr inbounds nuw i8, ptr %15, i64 88
  store ptr %5, ptr %20, align 8, !tbaa !99
  %21 = getelementptr inbounds nuw i8, ptr %15, i64 56
  store ptr %6, ptr %21, align 8, !tbaa !97
  %22 = getelementptr inbounds nuw i8, ptr %15, i64 64
  store ptr %7, ptr %22, align 8, !tbaa !95
  %23 = getelementptr inbounds nuw i8, ptr %15, i64 72
  store ptr %8, ptr %23, align 8, !tbaa !96
  %24 = getelementptr inbounds nuw i8, ptr %15, i64 96
  store ptr %9, ptr %24, align 8, !tbaa !100
  %25 = getelementptr inbounds nuw i8, ptr %15, i64 112
  store ptr %10, ptr %25, align 8, !tbaa !103
  %26 = getelementptr inbounds nuw i8, ptr %15, i64 120
  store ptr %11, ptr %26, align 8, !tbaa !105
  %27 = getelementptr inbounds nuw i8, ptr %15, i64 136
  %28 = load ptr, ptr %27, align 8, !tbaa !26
  %29 = load ptr, ptr %28, align 8, !tbaa !8
  %30 = getelementptr inbounds nuw i8, ptr %29, i64 48
  %31 = load ptr, ptr %30, align 8
  %32 = tail call noundef i32 %31(ptr noundef nonnull align 8 dereferenceable(90) %28, i1 noundef zeroext false)
  %.not = icmp eq i32 %32, 0
  br i1 %.not, label %_ZN5Ipopt8SmartPtrINS_4TNLPEEC2EPS1_.exit, label %33

33:                                               ; preds = %12
  %puts = tail call i32 @puts(ptr nonnull dereferenceable(1) @str)
  br label %65

_ZN5Ipopt8SmartPtrINS_4TNLPEEC2EPS1_.exit:        ; preds = %12
  %34 = load ptr, ptr %27, align 8, !tbaa !26
  call void @llvm.lifetime.start.p0(i64 8, ptr nonnull %13) #19
  %35 = getelementptr inbounds nuw i8, ptr %15, i64 8
  %36 = load i32, ptr %35, align 8, !tbaa !3
  %37 = add nsw i32 %36, 1
  store i32 %37, ptr %35, align 8, !tbaa !3
  store ptr %15, ptr %13, align 8, !tbaa !118
  %38 = load ptr, ptr %34, align 8, !tbaa !8
  %39 = getelementptr inbounds nuw i8, ptr %38, i64 56
  %40 = load ptr, ptr %39, align 8
  %41 = invoke noundef i32 %40(ptr noundef nonnull align 8 dereferenceable(90) %34, ptr noundef nonnull align 8 dereferenceable(8) %13)
          to label %42 unwind label %53

42:                                               ; preds = %_ZN5Ipopt8SmartPtrINS_4TNLPEEC2EPS1_.exit
  %43 = load ptr, ptr %13, align 8, !tbaa !118
  %.not.i.i32 = icmp eq ptr %43, null
  br i1 %.not.i.i32, label %_ZN5Ipopt8SmartPtrINS_4TNLPEED2Ev.exit, label %44

44:                                               ; preds = %42
  %45 = getelementptr inbounds nuw i8, ptr %43, i64 8
  %46 = load i32, ptr %45, align 8, !tbaa !3
  %47 = add nsw i32 %46, -1
  store i32 %47, ptr %45, align 8, !tbaa !3
  %48 = icmp eq i32 %47, 0
  br i1 %48, label %49, label %_ZN5Ipopt8SmartPtrINS_4TNLPEED2Ev.exit

49:                                               ; preds = %44
  %50 = load ptr, ptr %43, align 8, !tbaa !8
  %51 = getelementptr inbounds nuw i8, ptr %50, i64 8
  %52 = load ptr, ptr %51, align 8
  call void %52(ptr noundef nonnull align 8 dereferenceable(12) %43) #19
  br label %_ZN5Ipopt8SmartPtrINS_4TNLPEED2Ev.exit

_ZN5Ipopt8SmartPtrINS_4TNLPEED2Ev.exit:           ; preds = %42, %44, %49
  call void @llvm.lifetime.end.p0(i64 8, ptr nonnull %13) #19
  br label %65

53:                                               ; preds = %_ZN5Ipopt8SmartPtrINS_4TNLPEEC2EPS1_.exit
  %54 = landingpad { ptr, i32 }
          cleanup
  %55 = load ptr, ptr %13, align 8, !tbaa !118
  %.not.i.i33 = icmp eq ptr %55, null
  br i1 %.not.i.i33, label %_ZN5Ipopt8SmartPtrINS_4TNLPEED2Ev.exit34, label %56

56:                                               ; preds = %53
  %57 = getelementptr inbounds nuw i8, ptr %55, i64 8
  %58 = load i32, ptr %57, align 8, !tbaa !3
  %59 = add nsw i32 %58, -1
  store i32 %59, ptr %57, align 8, !tbaa !3
  %60 = icmp eq i32 %59, 0
  br i1 %60, label %61, label %_ZN5Ipopt8SmartPtrINS_4TNLPEED2Ev.exit34

61:                                               ; preds = %56
  %62 = load ptr, ptr %55, align 8, !tbaa !8
  %63 = getelementptr inbounds nuw i8, ptr %62, i64 8
  %64 = load ptr, ptr %63, align 8
  call void %64(ptr noundef nonnull align 8 dereferenceable(12) %55) #19
  br label %_ZN5Ipopt8SmartPtrINS_4TNLPEED2Ev.exit34

_ZN5Ipopt8SmartPtrINS_4TNLPEED2Ev.exit34:         ; preds = %53, %56, %61
  call void @llvm.lifetime.end.p0(i64 8, ptr nonnull %13) #19
  resume { ptr, i32 } %54

65:                                               ; preds = %_ZN5Ipopt8SmartPtrINS_4TNLPEED2Ev.exit, %33
  %.0 = phi i32 [ %32, %33 ], [ %41, %_ZN5Ipopt8SmartPtrINS_4TNLPEED2Ev.exit ]
  ret i32 %.0
}